; Function Attrs: mustprogress uwtable
define hidden void @_ZN11state_graph9mark_doneEj(ptr noundef nonnull align 8 dereferenceable(152) %0, i32 noundef %1) local_unnamed_addr #3 align 2 {
  %3 = lshr i32 %1, 5
  %4 = load ptr, ptr %0, align 8, !tbaa !3
  %5 = icmp eq ptr %4, null
  br i1 %5, label %_ZNK8uint_set8containsEj.exit.thread, label %_ZNK6vectorIjLb0EjE4sizeEv.exit.i

_ZNK6vectorIjLb0EjE4sizeEv.exit.i:                ; preds = %2
  %6 = getelementptr inbounds i8, ptr %4, i64 -4
  %7 = load i32, ptr %6, align 4, !tbaa !9
  %8 = icmp ult i32 %3, %7
  br i1 %8, label %_ZNK8uint_set8containsEj.exit, label %_ZNK8uint_set8containsEj.exit.thread

_ZNK8uint_set8containsEj.exit:                    ; preds = %_ZNK6vectorIjLb0EjE4sizeEv.exit.i
  %9 = zext nneg i32 %3 to i64
  %10 = getelementptr inbounds nuw i32, ptr %4, i64 %9
  %11 = load i32, ptr %10, align 4, !tbaa !9
  %12 = and i32 %1, 31
  %13 = shl nuw i32 1, %12
  %14 = and i32 %11, %13
  %.not = icmp eq i32 %14, 0
  br i1 %.not, label %_ZNK8uint_set8containsEj.exit.thread, label %50

_ZNK8uint_set8containsEj.exit.thread:             ; preds = %2, %_ZNK6vectorIjLb0EjE4sizeEv.exit.i, %_ZNK8uint_set8containsEj.exit
  %15 = getelementptr inbounds nuw i8, ptr %0, i64 24
  %16 = load ptr, ptr %15, align 8, !tbaa !3
  %17 = icmp eq ptr %16, null
  br i1 %17, label %_ZNK8uint_set8containsEj.exit6.thread, label %_ZNK6vectorIjLb0EjE4sizeEv.exit.i5

_ZNK6vectorIjLb0EjE4sizeEv.exit.i5:               ; preds = %_ZNK8uint_set8containsEj.exit.thread
  %18 = getelementptr inbounds i8, ptr %16, i64 -4
  %19 = load i32, ptr %18, align 4, !tbaa !9
  %20 = icmp ult i32 %3, %19
  br i1 %20, label %_ZNK8uint_set8containsEj.exit6, label %_ZNK8uint_set8containsEj.exit6.thread

_ZNK8uint_set8containsEj.exit6:                   ; preds = %_ZNK6vectorIjLb0EjE4sizeEv.exit.i5
  %21 = zext nneg i32 %3 to i64
  %22 = getelementptr inbounds nuw i32, ptr %16, i64 %21
  %23 = load i32, ptr %22, align 4, !tbaa !9
  %24 = and i32 %1, 31
  %25 = shl nuw i32 1, %24
  %26 = and i32 %23, %25
  %.not7 = icmp eq i32 %26, 0
  br i1 %.not7, label %_ZNK8uint_set8containsEj.exit6.thread, label %_ZN8uint_set6removeEj.exit.i

_ZN8uint_set6removeEj.exit.i:                     ; preds = %_ZNK8uint_set8containsEj.exit6
  %27 = xor i32 %25, -1
  %28 = and i32 %23, %27
  store i32 %28, ptr %22, align 4, !tbaa !9
  %29 = getelementptr inbounds nuw i8, ptr %0, i64 16
  %30 = load ptr, ptr %29, align 8, !tbaa !3
  %31 = icmp eq ptr %30, null
  br i1 %31, label %thread-pre-split.i.i.i.preheader, label %_ZNK6vectorIjLb0EjE4sizeEv.exit.i2.i

_ZNK6vectorIjLb0EjE4sizeEv.exit.i2.i:             ; preds = %_ZN8uint_set6removeEj.exit.i
  %32 = getelementptr inbounds i8, ptr %30, i64 -4
  %33 = load i32, ptr %32, align 4, !tbaa !9
  %.not.i.i = icmp ult i32 %3, %33
  br i1 %.not.i.i, label %_ZN11state_graph17mark_unknown_coreEj.exit, label %thread-pre-split.i.i.i.preheader

thread-pre-split.i.i.i.preheader:                 ; preds = %_ZNK6vectorIjLb0EjE4sizeEv.exit.i2.i, %_ZN8uint_set6removeEj.exit.i
  %.ph = phi ptr [ null, %_ZN8uint_set6removeEj.exit.i ], [ %30, %_ZNK6vectorIjLb0EjE4sizeEv.exit.i2.i ]
  %.0.i16.i.i.i.ph = phi i32 [ 0, %_ZN8uint_set6removeEj.exit.i ], [ %33, %_ZNK6vectorIjLb0EjE4sizeEv.exit.i2.i ]
  %.ph8 = add nuw nsw i32 %3, 1
  br label %thread-pre-split.i.i.i

thread-pre-split.i.i.i:                           ; preds = %thread-pre-split.i.i.i.preheader, %_ZNK6vectorIjLb0EjE8capacityEv.exit.thread.i.i.i
  %34 = phi ptr [ %.pr.pre.i.i.i, %_ZNK6vectorIjLb0EjE8capacityEv.exit.thread.i.i.i ], [ %.ph, %thread-pre-split.i.i.i.preheader ]
  %35 = icmp eq ptr %34, null
  br i1 %35, label %_ZNK6vectorIjLb0EjE8capacityEv.exit.thread.i.i.i, label %_ZNK6vectorIjLb0EjE8capacityEv.exit.i.i.i

_ZNK6vectorIjLb0EjE8capacityEv.exit.i.i.i:        ; preds = %thread-pre-split.i.i.i
  %36 = getelementptr inbounds i8, ptr %34, i64 -8
  %37 = load i32, ptr %36, align 4, !tbaa !9
  %.not9 = icmp ult i32 %3, %37
  br i1 %.not9, label %38, label %_ZNK6vectorIjLb0EjE8capacityEv.exit.thread.i.i.i

_ZNK6vectorIjLb0EjE8capacityEv.exit.thread.i.i.i: ; preds = %_ZNK6vectorIjLb0EjE8capacityEv.exit.i.i.i, %thread-pre-split.i.i.i
  tail call void @_ZN6vectorIjLb0EjE13expand_vectorEv(ptr noundef nonnull align 8 dereferenceable(8) %29)
  %.pr.pre.i.i.i = load ptr, ptr %29, align 8, !tbaa !3
  br label %thread-pre-split.i.i.i, !llvm.loop !13

38:                                               ; preds = %_ZNK6vectorIjLb0EjE8capacityEv.exit.i.i.i
  %39 = getelementptr inbounds i8, ptr %34, i64 -4
  store i32 %.ph8, ptr %39, align 4, !tbaa !9
  %.not1218.i.i.i = icmp eq i32 %.0.i16.i.i.i.ph, %.ph8
  br i1 %.not1218.i.i.i, label %_ZN11state_graph17mark_unknown_coreEj.exit, label %.lr.ph.preheader.i.i.i

.lr.ph.preheader.i.i.i:                           ; preds = %38
  %40 = zext nneg i32 %.ph8 to i64
  %41 = zext i32 %.0.i16.i.i.i.ph to i64
  %42 = getelementptr i32, ptr %34, i64 %41
  %43 = sub nsw i64 %40, %41
  %44 = shl nsw i64 %43, 2
  tail call void @llvm.memset.p0.i64(ptr align 4 %42, i8 0, i64 %44, i1 false), !tbaa !9
  br label %_ZN11state_graph17mark_unknown_coreEj.exit

_ZN11state_graph17mark_unknown_coreEj.exit:       ; preds = %_ZNK6vectorIjLb0EjE4sizeEv.exit.i2.i, %38, %.lr.ph.preheader.i.i.i
  %45 = phi ptr [ %34, %.lr.ph.preheader.i.i.i ], [ %34, %38 ], [ %30, %_ZNK6vectorIjLb0EjE4sizeEv.exit.i2.i ]
  %46 = getelementptr inbounds nuw i32, ptr %45, i64 %21
  %47 = load i32, ptr %46, align 4, !tbaa !9
  %48 = or i32 %47, %25
  store i32 %48, ptr %46, align 4, !tbaa !9
  br label %_ZNK8uint_set8containsEj.exit6.thread

_ZNK8uint_set8containsEj.exit6.thread:            ; preds = %_ZNK8uint_set8containsEj.exit.thread, %_ZNK6vectorIjLb0EjE4sizeEv.exit.i5, %_ZN11state_graph17mark_unknown_coreEj.exit, %_ZNK8uint_set8containsEj.exit6
  %49 = tail call noundef i32 @_ZN11state_graph16merge_all_cyclesEj(ptr noundef nonnull align 8 dereferenceable(152) %0, i32 noundef %1)
  tail call void @_ZN11state_graph19mark_dead_recursiveEj(ptr noundef nonnull align 8 dereferenceable(152) %0, i32 noundef %49)
  br label %50

50:                                               ; preds = %_ZNK8uint_set8containsEj.exit, %_ZNK8uint_set8containsEj.exit6.thread
  ret void
}